; Function Attrs: mustprogress uwtable
define hidden void @_ZN3smt12clause_proof7declareERSoP4expr(ptr noundef nonnull align 8 dereferenceable(864) %0, ptr noundef nonnull align 8 dereferenceable(8) %1, ptr noundef %2) local_unnamed_addr #4 align 2 {
  %4 = getelementptr inbounds nuw i8, ptr %0, i64 88
  tail call void @_ZN11ast_pp_util7collectEP4expr(ptr noundef nonnull align 8 dereferenceable(704) %4, ptr noundef %2)
  tail call void @_ZN11ast_pp_util13display_declsERSo(ptr noundef nonnull align 8 dereferenceable(704) %4, ptr noundef nonnull align 8 dereferenceable(8) %1)
  %5 = getelementptr inbounds nuw i8, ptr %2, i64 4
  %6 = load i32, ptr %5, align 4
  %7 = and i32 %6, 65535
  %8 = icmp eq i32 %7, 0
  br i1 %8, label %9, label %_ZNK11ast_manager6is_notEPK4exprRPS0_.exit

9:                                                ; preds = %3
  %10 = getelementptr inbounds nuw i8, ptr %2, i64 16
  %11 = load ptr, ptr %10, align 8, !tbaa !662
  %12 = getelementptr inbounds nuw i8, ptr %11, i64 24
  %13 = load ptr, ptr %12, align 8, !tbaa !666
  %.not.i.i.i.i.i = icmp eq ptr %13, null
  br i1 %.not.i.i.i.i.i, label %_ZNK11ast_manager6is_notEPK4exprRPS0_.exit, label %_ZNK11ast_manager6is_notEPK4expr.exit.i

_ZNK11ast_manager6is_notEPK4expr.exit.i:          ; preds = %9
  %14 = load i32, ptr %13, align 8, !tbaa !669
  %15 = icmp eq i32 %14, 0
  %16 = getelementptr inbounds nuw i8, ptr %13, i64 4
  %17 = load i32, ptr %16, align 4
  %18 = icmp eq i32 %17, 8
  %19 = select i1 %15, i1 %18, i1 false
  br i1 %19, label %20, label %_ZNK11ast_manager6is_notEPK4exprRPS0_.exit

20:                                               ; preds = %_ZNK11ast_manager6is_notEPK4expr.exit.i
  %21 = getelementptr inbounds nuw i8, ptr %2, i64 24
  %22 = load i32, ptr %21, align 8, !tbaa !673
  %23 = icmp eq i32 %22, 1
  br i1 %23, label %24, label %_ZNK11ast_manager6is_notEPK4exprRPS0_.exit

24:                                               ; preds = %20
  %25 = getelementptr inbounds nuw i8, ptr %2, i64 32
  %26 = load ptr, ptr %25, align 8, !tbaa !564
  br label %_ZNK11ast_manager6is_notEPK4exprRPS0_.exit

_ZNK11ast_manager6is_notEPK4exprRPS0_.exit:       ; preds = %3, %9, %_ZNK11ast_manager6is_notEPK4expr.exit.i, %20, %24
  %.0 = phi ptr [ %2, %9 ], [ %26, %24 ], [ %2, %20 ], [ %2, %_ZNK11ast_manager6is_notEPK4expr.exit.i ], [ %2, %3 ]
  %27 = tail call noundef nonnull align 8 dereferenceable(8) ptr @_ZN11ast_pp_util11define_exprERSoP4expr(ptr noundef nonnull align 8 dereferenceable(704) %4, ptr noundef nonnull align 8 dereferenceable(8) %1, ptr noundef %.0)
  ret void
}